target datalayout = "e-m:e-p270:32:32-p271:32:32-p272:64:64-i64:64-i128:128-f80:128-n8:16:32:64-S128"
target triple = "x86_64-pc-linux-gnu"

%struct.SDL_AtomicInt = type { i32 }
%struct.SDL_Window = type { i32, ptr, ptr, i32, i32, i32, i32, i32, i32, i32, i32, float, float, i32, i32, i64, i64, float, i8, i8, i32, i32, %struct.SDL_Rect, %struct.SDL_Rect, %struct.SDL_Rect, i8, i8, i8, %struct.SDL_DisplayMode, %struct.SDL_DisplayMode, %struct.SDL_HDROutputProperties, float, ptr, i8, i8, i8, i8, i8, i8, i8, i8, i8, i32, i32, i32, i32, %struct.SDL_Rect, i32, i8, %struct.SDL_Rect, i32, %struct.SDL_Rect, ptr, ptr, i32, float, i32, i32, ptr, ptr, ptr, ptr, ptr, ptr, ptr, ptr, ptr }
%struct.SDL_DisplayMode = type { i32, i32, i32, i32, float, float, i32, i32, ptr }
%struct.SDL_HDROutputProperties = type { float, float }
%struct.SDL_Rect = type { i32, i32, i32, i32 }
%struct.SDL_VideoDevice = type { ptr, ptr, ptr, ptr, ptr, ptr, ptr, ptr, ptr, ptr, ptr, ptr, ptr, ptr, ptr, ptr, ptr, ptr, ptr, ptr, ptr, ptr, ptr, ptr, ptr, ptr, ptr, ptr, ptr, ptr, ptr, ptr, ptr, ptr, ptr, ptr, ptr, ptr, ptr, ptr, ptr, ptr, ptr, ptr, ptr, ptr, ptr, ptr, ptr, ptr, ptr, ptr, ptr, ptr, ptr, ptr, ptr, ptr, ptr, ptr, ptr, ptr, ptr, ptr, ptr, ptr, ptr, ptr, ptr, ptr, ptr, ptr, ptr, ptr, ptr, ptr, ptr, ptr, ptr, ptr, ptr, ptr, ptr, ptr, ptr, ptr, ptr, ptr, ptr, ptr, ptr, ptr, ptr, ptr, ptr, ptr, ptr, i64, i8, i8, i8, ptr, i32, ptr, %struct.SDL_Rect, ptr, ptr, i32, ptr, ptr, ptr, ptr, i64, ptr, i8, i32, i32, %struct.anon, ptr, ptr, ptr, ptr, ptr, ptr, %struct.SDL_AtomicInt, %struct.SDL_AtomicInt, i8, %struct.anon.0, ptr, ptr, ptr, ptr, ptr }
%struct.anon = type { i32, i32, i32, i32, i32, i32, i32, i32, i32, i32, i32, i32, i32, i32, i32, i32, i32, i32, i32, i32, i32, i32, i32, i32, i32, i32, i32, i32, i32, [256 x i8], ptr }
%struct.anon.0 = type { ptr, ptr, i32, [256 x i8], ptr }

@_this = internal global ptr null, align 8
@.str.167 = private unnamed_addr constant [33 x i8] c"SDL_VIDEO_MINIMIZE_ON_FOCUS_LOSS\00", align 1
@.str.168 = private unnamed_addr constant [5 x i8] c"auto\00", align 1

; Function Attrs: nounwind uwtable
define internal zeroext i1 @SDL_ModeSwitchingEmulated(ptr noundef %0) #0 {
  %2 = alloca i1, align 1
  %3 = alloca ptr, align 8
  store ptr %0, ptr %3, align 8
  %4 = load ptr, ptr %3, align 8
  %5 = getelementptr inbounds nuw %struct.SDL_VideoDevice, ptr %4, i32 0, i32 115
  %6 = load i32, ptr %5, align 4
  %7 = and i32 %6, 1
  %8 = icmp ne i32 %7, 0
  br i1 %8, label %9, label %10

9:                                                ; preds = %1
  store i1 true, ptr %2, align 1
  br label %11

10:                                               ; preds = %1
  store i1 false, ptr %2, align 1
  br label %11

11:                                               ; preds = %10, %9
  %12 = load i1, ptr %2, align 1
  ret i1 %12
}

; Function Attrs: nounwind uwtable
define internal zeroext i1 @SDL_ShouldMinimizeOnFocusLoss(ptr noundef %0) #0 {
  %2 = alloca i1, align 1
  %3 = alloca ptr, align 8
  %4 = alloca ptr, align 8
  %5 = alloca i32, align 4
  store ptr %0, ptr %3, align 8
  call void @llvm.lifetime.start.p0(i64 8, ptr %4) #10
  %6 = load ptr, ptr %3, align 8
  %7 = getelementptr inbounds nuw %struct.SDL_Window, ptr %6, i32 0, i32 15
  %8 = load i64, ptr %7, align 8
  %9 = and i64 %8, 1
  %10 = icmp ne i64 %9, 0
  br i1 %10, label %11, label %16

11:                                               ; preds = %1
  %12 = load ptr, ptr %3, align 8
  %13 = getelementptr inbounds nuw %struct.SDL_Window, ptr %12, i32 0, i32 40
  %14 = load i8, ptr %13, align 1, !range !5, !noundef !6
  %15 = trunc i8 %14 to i1
  br i1 %15, label %16, label %17

16:                                               ; preds = %11, %1
  store i1 false, ptr %2, align 1
  store i32 1, ptr %5, align 4
  br label %41

17:                                               ; preds = %11
  %18 = call ptr @SDL_GetHint_REAL(ptr noundef @.str.167)
  store ptr %18, ptr %4, align 8
  %19 = load ptr, ptr %4, align 8
  %20 = icmp ne ptr %19, null
  br i1 %20, label %21, label %29

21:                                               ; preds = %17
  %22 = load ptr, ptr %4, align 8
  %23 = load i8, ptr %22, align 1
  %24 = icmp ne i8 %23, 0
  br i1 %24, label %25, label %29

25:                                               ; preds = %21
  %26 = load ptr, ptr %4, align 8
  %27 = call i32 @SDL_strcasecmp_REAL(ptr noundef %26, ptr noundef @.str.168)
  %28 = icmp eq i32 %27, 0
  br i1 %28, label %29, label %39

29:                                               ; preds = %25, %21, %17
  %30 = load ptr, ptr %3, align 8
  %31 = getelementptr inbounds nuw %struct.SDL_Window, ptr %30, i32 0, i32 19
  %32 = load i8, ptr %31, align 1, !range !5, !noundef !6
  %33 = trunc i8 %32 to i1
  br i1 %33, label %34, label %38

34:                                               ; preds = %29
  %35 = load ptr, ptr @_this, align 8
  %36 = call zeroext i1 @SDL_ModeSwitchingEmulated(ptr noundef %35)
  br i1 %36, label %38, label %37

37:                                               ; preds = %34
  store i1 true, ptr %2, align 1
  store i32 1, ptr %5, align 4
  br label %41

38:                                               ; preds = %34, %29
  store i1 false, ptr %2, align 1
  store i32 1, ptr %5, align 4
  br label %41

39:                                               ; preds = %25
  %40 = call zeroext i1 @SDL_GetHintBoolean_REAL(ptr noundef @.str.167, i1 noundef zeroext false)
  store i1 %40, ptr %2, align 1
  store i32 1, ptr %5, align 4
  br label %41

41:                                               ; preds = %39, %38, %37, %16
  call void @llvm.lifetime.end.p0(i64 8, ptr %4) #10
  %42 = load i1, ptr %2, align 1
  ret i1 %42
}

; Function Attrs: nounwind uwtable
define hidden void @SDL_OnWindowFocusLost(ptr noundef %0) #0 {
  %2 = alloca ptr, align 8
  store ptr %0, ptr %2, align 8
  %3 = load ptr, ptr %2, align 8
  call void @SDL_UpdateWindowGrab(ptr noundef %3)
  %4 = load ptr, ptr %2, align 8
  %5 = call zeroext i1 @SDL_ShouldMinimizeOnFocusLoss(ptr noundef %4)
  br i1 %5, label %6, label %9

6:                                                ; preds = %1
  %7 = load ptr, ptr %2, align 8
  %8 = call zeroext i1 @SDL_MinimizeWindow_REAL(ptr noundef %7)
  br label %9

9:                                                ; preds = %6, %1
  ret void
}