; Function Attrs: nounwind uwtable
define hidden void @SDL_OnWindowFocusLost(ptr noundef %0) local_unnamed_addr #0 {
  tail call void @SDL_UpdateWindowGrab(ptr noundef %0)
  %2 = getelementptr inbounds nuw i8, ptr %0, i64 72
  %3 = load i64, ptr %2, align 8
  %4 = and i64 %3, 1
  %.not.i = icmp eq i64 %4, 0
  br i1 %.not.i, label %SDL_ShouldMinimizeOnFocusLoss.exit.thread, label %5

5:                                                ; preds = %1
  %6 = getelementptr inbounds nuw i8, ptr %0, i64 271
  %7 = load i8, ptr %6, align 1, !range !6, !noundef !7
  %8 = trunc nuw i8 %7 to i1
  br i1 %8, label %SDL_ShouldMinimizeOnFocusLoss.exit.thread, label %9

9:                                                ; preds = %5
  %10 = tail call ptr @SDL_GetHint_REAL(ptr noundef nonnull @.str.167) #19
  %.not8.i = icmp eq ptr %10, null
  br i1 %.not8.i, label %16, label %11

11:                                               ; preds = %9
  %12 = load i8, ptr %10, align 1
  %.not9.i = icmp eq i8 %12, 0
  br i1 %.not9.i, label %16, label %13

13:                                               ; preds = %11
  %14 = tail call i32 @SDL_strcasecmp_REAL(ptr noundef nonnull %10, ptr noundef nonnull @.str.168) #19
  %15 = icmp eq i32 %14, 0
  br i1 %15, label %16, label %SDL_ShouldMinimizeOnFocusLoss.exit

16:                                               ; preds = %13, %11, %9
  %17 = getelementptr inbounds nuw i8, ptr %0, i64 93
  %18 = load i8, ptr %17, align 1, !range !6, !noundef !7
  %19 = trunc nuw i8 %18 to i1
  br i1 %19, label %20, label %SDL_ShouldMinimizeOnFocusLoss.exit.thread

20:                                               ; preds = %16
  %21 = load ptr, ptr @_this, align 8
  %22 = getelementptr i8, ptr %21, i64 908
  %.val.i = load i32, ptr %22, align 4
  %23 = and i32 %.val.i, 1
  %.not.i.not.i = icmp eq i32 %23, 0
  br i1 %.not.i.not.i, label %SDL_ShouldMinimizeOnFocusLoss.exit.thread4, label %SDL_ShouldMinimizeOnFocusLoss.exit.thread

SDL_ShouldMinimizeOnFocusLoss.exit:               ; preds = %13
  %24 = tail call zeroext i1 @SDL_GetHintBoolean_REAL(ptr noundef nonnull @.str.167, i1 noundef zeroext false) #19
  br i1 %24, label %SDL_ShouldMinimizeOnFocusLoss.exit.thread4, label %SDL_ShouldMinimizeOnFocusLoss.exit.thread

SDL_ShouldMinimizeOnFocusLoss.exit.thread4:       ; preds = %20, %SDL_ShouldMinimizeOnFocusLoss.exit
  %25 = tail call zeroext i1 @SDL_MinimizeWindow_REAL(ptr noundef nonnull %0)
  br label %SDL_ShouldMinimizeOnFocusLoss.exit.thread

SDL_ShouldMinimizeOnFocusLoss.exit.thread:        ; preds = %16, %20, %1, %5, %SDL_ShouldMinimizeOnFocusLoss.exit.thread4, %SDL_ShouldMinimizeOnFocusLoss.exit
  ret void
}